target datalayout = "e-m:e-p270:32:32-p271:32:32-p272:64:64-i64:64-i128:128-f80:128-n8:16:32:64-S128"
target triple = "x86_64-pc-linux-gnu"

%"class.cv::utils::trace::details::Region" = type <{ ptr, i32, [4 x i8] }>
%"class.cv::Mat_" = type { %"class.cv::Mat" }
%"class.cv::Mat" = type { i32, i32, i32, i32, ptr, ptr, ptr, ptr, ptr, ptr, %"struct.cv::MatSize", %"struct.cv::MatStep" }
%"struct.cv::MatSize" = type { ptr }
%"struct.cv::MatStep" = type { ptr, [2 x i64] }
%"struct.cv::VariationalRefinementImpl::RedBlackBuffer" = type { %"class.cv::Mat_", %"class.cv::Mat_", i32, i32, i32, i32 }

; Function Attrs: inlinehint mustprogress nounwind uwtable
define linkonce_odr hidden void @_ZN2cv5utils5trace7details6RegionD2Ev(ptr noundef nonnull align 8 dereferenceable(12) %0) unnamed_addr #2 comdat align 2 personality ptr @__gxx_personality_v0 {
  %2 = alloca ptr, align 8
  store ptr %0, ptr %2, align 8, !tbaa !39
  %3 = load ptr, ptr %2, align 8
  %4 = getelementptr inbounds nuw %"class.cv::utils::trace::details::Region", ptr %3, i32 0, i32 1
  %5 = load i32, ptr %4, align 8, !tbaa !41
  %6 = icmp ne i32 %5, 0
  br i1 %6, label %7, label %9

7:                                                ; preds = %1
  invoke void @_ZN2cv5utils5trace7details6Region7destroyEv(ptr noundef nonnull align 8 dereferenceable(12) %3)
          to label %8 unwind label %10

8:                                                ; preds = %7
  br label %9

9:                                                ; preds = %8, %1
  ret void

10:                                               ; preds = %7
  %11 = landingpad { ptr, i32 }
          catch ptr null
  %12 = extractvalue { ptr, i32 } %11, 0
  call void @__clang_call_terminate(ptr %12) #19
  unreachable
}

; Function Attrs: inlinehint mustprogress nounwind uwtable
define linkonce_odr hidden noundef ptr @_ZN2cv3Mat3ptrIfEEPT_i(ptr noundef nonnull align 8 dereferenceable(96) %0, i32 noundef %1) #2 comdat align 2 {
  %3 = alloca ptr, align 8
  %4 = alloca i32, align 4
  store ptr %0, ptr %3, align 8, !tbaa !46
  store i32 %1, ptr %4, align 4, !tbaa !49
  %5 = load ptr, ptr %3, align 8
  %6 = getelementptr inbounds nuw %"class.cv::Mat", ptr %5, i32 0, i32 4
  %7 = load ptr, ptr %6, align 8, !tbaa !58
  %8 = getelementptr inbounds nuw %"class.cv::Mat", ptr %5, i32 0, i32 11
  %9 = getelementptr inbounds nuw %"struct.cv::MatStep", ptr %8, i32 0, i32 0
  %10 = load ptr, ptr %9, align 8, !tbaa !59
  %11 = getelementptr inbounds i64, ptr %10, i64 0
  %12 = load i64, ptr %11, align 8, !tbaa !60
  %13 = load i32, ptr %4, align 4, !tbaa !49
  %14 = sext i32 %13 to i64
  %15 = mul i64 %12, %14
  %16 = getelementptr inbounds nuw i8, ptr %7, i64 %15
  ret ptr %16
}

; Function Attrs: mustprogress uwtable
define hidden void @_ZN2cv25VariationalRefinementImpl17mergeCheckerboardERNS_3MatERNS0_14RedBlackBufferE(ptr noundef nonnull align 8 dereferenceable(5160) %0, ptr noundef nonnull align 8 dereferenceable(96) %1, ptr noundef nonnull align 8 dereferenceable(208) %2) #0 align 2 personality ptr @__gxx_personality_v0 {
  %4 = alloca ptr, align 8
  %5 = alloca ptr, align 8
  %6 = alloca ptr, align 8
  %7 = alloca %"class.cv::utils::trace::details::Region", align 8
  %8 = alloca i32, align 4
  %9 = alloca i32, align 4
  %10 = alloca i32, align 4
  %11 = alloca ptr, align 8
  %12 = alloca ptr, align 8
  %13 = alloca i32, align 4
  %14 = alloca ptr, align 8
  %15 = alloca ptr, align 8
  store ptr %0, ptr %4, align 8, !tbaa !3
  store ptr %1, ptr %5, align 8, !tbaa !46
  store ptr %2, ptr %6, align 8, !tbaa !44
  call void @llvm.lifetime.start.p0(i64 16, ptr %7) #18
  call void @_ZN2cv5utils5trace7details6RegionC1ERKNS3_21LocationStaticStorageE(ptr noundef nonnull align 8 dereferenceable(12) %7, ptr noundef nonnull align 8 dereferenceable(32) @_ZZN2cv25VariationalRefinementImpl17mergeCheckerboardERNS_3MatERNS0_14RedBlackBufferEE25__cv_trace_location_fn305)
  call void @llvm.lifetime.start.p0(i64 4, ptr %8) #18
  call void @llvm.lifetime.start.p0(i64 4, ptr %9) #18
  call void @llvm.lifetime.start.p0(i64 4, ptr %10) #18
  store i32 0, ptr %10, align 4, !tbaa !49
  br label %16

16:                                               ; preds = %156, %3
  %17 = load i32, ptr %10, align 4, !tbaa !49
  %18 = load ptr, ptr %5, align 8, !tbaa !46
  %19 = getelementptr inbounds nuw %"class.cv::Mat", ptr %18, i32 0, i32 2
  %20 = load i32, ptr %19, align 8, !tbaa !50
  %21 = icmp slt i32 %17, %20
  br i1 %21, label %23, label %22

22:                                               ; preds = %16
  call void @llvm.lifetime.end.p0(i64 4, ptr %10) #18
  br label %161

23:                                               ; preds = %16
  call void @llvm.lifetime.start.p0(i64 8, ptr %11) #18
  %24 = load ptr, ptr %6, align 8, !tbaa !44
  %25 = getelementptr inbounds nuw %"struct.cv::VariationalRefinementImpl::RedBlackBuffer", ptr %24, i32 0, i32 0
  %26 = load i32, ptr %10, align 4, !tbaa !49
  %27 = add nsw i32 %26, 1
  %28 = invoke noundef ptr @_ZN2cv3Mat3ptrIfEEPT_i(ptr noundef nonnull align 8 dereferenceable(96) %25, i32 noundef %27)
          to label %29 unwind label %76

29:                                               ; preds = %23
  store ptr %28, ptr %11, align 8, !tbaa !51
  call void @llvm.lifetime.start.p0(i64 8, ptr %14) #18
  %30 = load ptr, ptr %6, align 8, !tbaa !44
  %31 = getelementptr inbounds nuw %"struct.cv::VariationalRefinementImpl::RedBlackBuffer", ptr %30, i32 0, i32 1
  %32 = load i32, ptr %10, align 4, !tbaa !49
  %33 = add nsw i32 %32, 1
  %34 = invoke noundef ptr @_ZN2cv3Mat3ptrIfEEPT_i(ptr noundef nonnull align 8 dereferenceable(96) %31, i32 noundef %33)
          to label %35 unwind label %80

35:                                               ; preds = %29
  store ptr %34, ptr %14, align 8, !tbaa !51
  call void @llvm.lifetime.start.p0(i64 8, ptr %15) #18
  %36 = load ptr, ptr %5, align 8, !tbaa !46
  %37 = load i32, ptr %10, align 4, !tbaa !49
  %38 = invoke noundef ptr @_ZN2cv3Mat3ptrIfEEPT_i(ptr noundef nonnull align 8 dereferenceable(96) %36, i32 noundef %37)
          to label %39 unwind label %84

39:                                               ; preds = %35
  store ptr %38, ptr %15, align 8, !tbaa !51
  store i32 1, ptr %8, align 4, !tbaa !49
  %40 = load i32, ptr %10, align 4, !tbaa !49
  %41 = srem i32 %40, 2
  %42 = icmp eq i32 %41, 0
  br i1 %42, label %43, label %105

43:                                               ; preds = %39
  store i32 0, ptr %9, align 4, !tbaa !49
  br label %44

44:                                               ; preds = %73, %43
  %45 = load i32, ptr %9, align 4, !tbaa !49
  %46 = load ptr, ptr %5, align 8, !tbaa !46
  %47 = getelementptr inbounds nuw %"class.cv::Mat", ptr %46, i32 0, i32 3
  %48 = load i32, ptr %47, align 4, !tbaa !48
  %49 = sub nsw i32 %48, 1
  %50 = icmp slt i32 %45, %49
  br i1 %50, label %51, label %88

51:                                               ; preds = %44
  %52 = load ptr, ptr %11, align 8, !tbaa !51
  %53 = load i32, ptr %8, align 4, !tbaa !49
  %54 = sext i32 %53 to i64
  %55 = getelementptr inbounds float, ptr %52, i64 %54
  %56 = load float, ptr %55, align 4, !tbaa !53
  %57 = load ptr, ptr %15, align 8, !tbaa !51
  %58 = load i32, ptr %9, align 4, !tbaa !49
  %59 = sext i32 %58 to i64
  %60 = getelementptr inbounds float, ptr %57, i64 %59
  store float %56, ptr %60, align 4, !tbaa !53
  %61 = load ptr, ptr %14, align 8, !tbaa !51
  %62 = load i32, ptr %8, align 4, !tbaa !49
  %63 = sext i32 %62 to i64
  %64 = getelementptr inbounds float, ptr %61, i64 %63
  %65 = load float, ptr %64, align 4, !tbaa !53
  %66 = load ptr, ptr %15, align 8, !tbaa !51
  %67 = load i32, ptr %9, align 4, !tbaa !49
  %68 = add nsw i32 %67, 1
  %69 = sext i32 %68 to i64
  %70 = getelementptr inbounds float, ptr %66, i64 %69
  store float %65, ptr %70, align 4, !tbaa !53
  %71 = load i32, ptr %8, align 4, !tbaa !49
  %72 = add nsw i32 %71, 1
  store i32 %72, ptr %8, align 4, !tbaa !49
  br label %73

73:                                               ; preds = %51
  %74 = load i32, ptr %9, align 4, !tbaa !49
  %75 = add nsw i32 %74, 2
  store i32 %75, ptr %9, align 4, !tbaa !49
  br label %44, !llvm.loop !62

76:                                               ; preds = %23
  %77 = landingpad { ptr, i32 }
          cleanup
  %78 = extractvalue { ptr, i32 } %77, 0
  store ptr %78, ptr %12, align 8
  %79 = extractvalue { ptr, i32 } %77, 1
  store i32 %79, ptr %13, align 4
  br label %160

80:                                               ; preds = %29
  %81 = landingpad { ptr, i32 }
          cleanup
  %82 = extractvalue { ptr, i32 } %81, 0
  store ptr %82, ptr %12, align 8
  %83 = extractvalue { ptr, i32 } %81, 1
  store i32 %83, ptr %13, align 4
  br label %159

84:                                               ; preds = %35
  %85 = landingpad { ptr, i32 }
          cleanup
  %86 = extractvalue { ptr, i32 } %85, 0
  store ptr %86, ptr %12, align 8
  %87 = extractvalue { ptr, i32 } %85, 1
  store i32 %87, ptr %13, align 4
  call void @llvm.lifetime.end.p0(i64 8, ptr %15) #18
  br label %159

88:                                               ; preds = %44
  %89 = load i32, ptr %9, align 4, !tbaa !49
  %90 = load ptr, ptr %5, align 8, !tbaa !46
  %91 = getelementptr inbounds nuw %"class.cv::Mat", ptr %90, i32 0, i32 3
  %92 = load i32, ptr %91, align 4, !tbaa !48
  %93 = icmp slt i32 %89, %92
  br i1 %93, label %94, label %104

94:                                               ; preds = %88
  %95 = load ptr, ptr %11, align 8, !tbaa !51
  %96 = load i32, ptr %8, align 4, !tbaa !49
  %97 = sext i32 %96 to i64
  %98 = getelementptr inbounds float, ptr %95, i64 %97
  %99 = load float, ptr %98, align 4, !tbaa !53
  %100 = load ptr, ptr %15, align 8, !tbaa !51
  %101 = load i32, ptr %9, align 4, !tbaa !49
  %102 = sext i32 %101 to i64
  %103 = getelementptr inbounds float, ptr %100, i64 %102
  store float %99, ptr %103, align 4, !tbaa !53
  br label %104

104:                                              ; preds = %94, %88
  br label %155

105:                                              ; preds = %39
  store i32 0, ptr %9, align 4, !tbaa !49
  br label %106

106:                                              ; preds = %135, %105
  %107 = load i32, ptr %9, align 4, !tbaa !49
  %108 = load ptr, ptr %5, align 8, !tbaa !46
  %109 = getelementptr inbounds nuw %"class.cv::Mat", ptr %108, i32 0, i32 3
  %110 = load i32, ptr %109, align 4, !tbaa !48
  %111 = sub nsw i32 %110, 1
  %112 = icmp slt i32 %107, %111
  br i1 %112, label %113, label %138

113:                                              ; preds = %106
  %114 = load ptr, ptr %14, align 8, !tbaa !51
  %115 = load i32, ptr %8, align 4, !tbaa !49
  %116 = sext i32 %115 to i64
  %117 = getelementptr inbounds float, ptr %114, i64 %116
  %118 = load float, ptr %117, align 4, !tbaa !53
  %119 = load ptr, ptr %15, align 8, !tbaa !51
  %120 = load i32, ptr %9, align 4, !tbaa !49
  %121 = sext i32 %120 to i64
  %122 = getelementptr inbounds float, ptr %119, i64 %121
  store float %118, ptr %122, align 4, !tbaa !53
  %123 = load ptr, ptr %11, align 8, !tbaa !51
  %124 = load i32, ptr %8, align 4, !tbaa !49
  %125 = sext i32 %124 to i64
  %126 = getelementptr inbounds float, ptr %123, i64 %125
  %127 = load float, ptr %126, align 4, !tbaa !53
  %128 = load ptr, ptr %15, align 8, !tbaa !51
  %129 = load i32, ptr %9, align 4, !tbaa !49
  %130 = add nsw i32 %129, 1
  %131 = sext i32 %130 to i64
  %132 = getelementptr inbounds float, ptr %128, i64 %131
  store float %127, ptr %132, align 4, !tbaa !53
  %133 = load i32, ptr %8, align 4, !tbaa !49
  %134 = add nsw i32 %133, 1
  store i32 %134, ptr %8, align 4, !tbaa !49
  br label %135

135:                                              ; preds = %113
  %136 = load i32, ptr %9, align 4, !tbaa !49
  %137 = add nsw i32 %136, 2
  store i32 %137, ptr %9, align 4, !tbaa !49
  br label %106, !llvm.loop !63

138:                                              ; preds = %106
  %139 = load i32, ptr %9, align 4, !tbaa !49
  %140 = load ptr, ptr %5, align 8, !tbaa !46
  %141 = getelementptr inbounds nuw %"class.cv::Mat", ptr %140, i32 0, i32 3
  %142 = load i32, ptr %141, align 4, !tbaa !48
  %143 = icmp slt i32 %139, %142
  br i1 %143, label %144, label %154

144:                                              ; preds = %138
  %145 = load ptr, ptr %14, align 8, !tbaa !51
  %146 = load i32, ptr %8, align 4, !tbaa !49
  %147 = sext i32 %146 to i64
  %148 = getelementptr inbounds float, ptr %145, i64 %147
  %149 = load float, ptr %148, align 4, !tbaa !53
  %150 = load ptr, ptr %15, align 8, !tbaa !51
  %151 = load i32, ptr %9, align 4, !tbaa !49
  %152 = sext i32 %151 to i64
  %153 = getelementptr inbounds float, ptr %150, i64 %152
  store float %149, ptr %153, align 4, !tbaa !53
  br label %154

154:                                              ; preds = %144, %138
  br label %155

155:                                              ; preds = %154, %104
  call void @llvm.lifetime.end.p0(i64 8, ptr %15) #18
  call void @llvm.lifetime.end.p0(i64 8, ptr %14) #18
  call void @llvm.lifetime.end.p0(i64 8, ptr %11) #18
  br label %156

156:                                              ; preds = %155
  %157 = load i32, ptr %10, align 4, !tbaa !49
  %158 = add nsw i32 %157, 1
  store i32 %158, ptr %10, align 4, !tbaa !49
  br label %16, !llvm.loop !64

159:                                              ; preds = %84, %80
  call void @llvm.lifetime.end.p0(i64 8, ptr %14) #18
  br label %160

160:                                              ; preds = %159, %76
  call void @llvm.lifetime.end.p0(i64 8, ptr %11) #18
  call void @llvm.lifetime.end.p0(i64 4, ptr %10) #18
  call void @llvm.lifetime.end.p0(i64 4, ptr %9) #18
  call void @llvm.lifetime.end.p0(i64 4, ptr %8) #18
  call void @_ZN2cv5utils5trace7details6RegionD2Ev(ptr noundef nonnull align 8 dereferenceable(12) %7) #18
  call void @llvm.lifetime.end.p0(i64 16, ptr %7) #18
  br label %162

161:                                              ; preds = %22
  call void @llvm.lifetime.end.p0(i64 4, ptr %9) #18
  call void @llvm.lifetime.end.p0(i64 4, ptr %8) #18
  call void @_ZN2cv5utils5trace7details6RegionD2Ev(ptr noundef nonnull align 8 dereferenceable(12) %7) #18
  call void @llvm.lifetime.end.p0(i64 16, ptr %7) #18
  ret void

162:                                              ; preds = %160
  %163 = load ptr, ptr %12, align 8
  %164 = load i32, ptr %13, align 4
  %165 = insertvalue { ptr, i32 } poison, ptr %163, 0
  %166 = insertvalue { ptr, i32 } %165, i32 %164, 1
  resume { ptr, i32 } %166
}