; Function Attrs: mustprogress uwtable
define hidden void @_ZN2cv25VariationalRefinementImpl17mergeCheckerboardERNS_3MatERNS0_14RedBlackBufferE(ptr nonnull readnone align 8 captures(none) %0, ptr noundef nonnull readonly align 8 captures(none) dereferenceable(96) %1, ptr noundef nonnull readonly align 8 captures(none) dereferenceable(208) %2) local_unnamed_addr #0 align 2 personality ptr @__gxx_personality_v0 {
  %4 = alloca %"class.cv::utils::trace::details::Region", align 8
  call void @llvm.lifetime.start.p0(i64 16, ptr nonnull %4) #18
  call void @_ZN2cv5utils5trace7details6RegionC1ERKNS3_21LocationStaticStorageE(ptr noundef nonnull align 8 dereferenceable(12) %4, ptr noundef nonnull align 8 dereferenceable(32) @_ZZN2cv25VariationalRefinementImpl17mergeCheckerboardERNS_3MatERNS0_14RedBlackBufferEE25__cv_trace_location_fn305)
  %5 = getelementptr inbounds nuw i8, ptr %1, i64 8
  %6 = load i32, ptr %5, align 8, !tbaa !37
  %7 = icmp sgt i32 %6, 0
  br i1 %7, label %.lr.ph63, label %._crit_edge64

.lr.ph63:                                         ; preds = %3
  %8 = getelementptr inbounds nuw i8, ptr %2, i64 16
  %9 = load ptr, ptr %8, align 8, !tbaa !38
  %10 = getelementptr inbounds nuw i8, ptr %2, i64 72
  %11 = load ptr, ptr %10, align 8, !tbaa !39
  %12 = load i64, ptr %11, align 8, !tbaa !40
  %13 = getelementptr inbounds nuw i8, ptr %2, i64 112
  %14 = load ptr, ptr %13, align 8, !tbaa !38
  %15 = getelementptr inbounds nuw i8, ptr %2, i64 168
  %16 = load ptr, ptr %15, align 8, !tbaa !39
  %17 = load i64, ptr %16, align 8, !tbaa !40
  %18 = getelementptr inbounds nuw i8, ptr %1, i64 16
  %19 = load ptr, ptr %18, align 8, !tbaa !38
  %20 = getelementptr inbounds nuw i8, ptr %1, i64 72
  %21 = load ptr, ptr %20, align 8, !tbaa !39
  %22 = load i64, ptr %21, align 8, !tbaa !40
  %23 = getelementptr inbounds nuw i8, ptr %1, i64 12
  %24 = load i32, ptr %23, align 4
  %.fr89 = freeze i32 %24
  %25 = icmp sgt i32 %.fr89, 1
  br i1 %25, label %.lr.ph63.split.us.preheader, label %.lr.ph63.split.split

.lr.ph63.split.us.preheader:                      ; preds = %.lr.ph63
  %26 = add nsw i32 %.fr89, -2
  %27 = lshr i32 %26, 1
  %28 = add nuw nsw i32 %27, 2
  %wide.trip.count146 = zext nneg i32 %6 to i64
  %wide.trip.count132 = zext nneg i32 %28 to i64
  %29 = zext nneg i32 %28 to i64
  %wide.trip.count141 = zext nneg i32 %28 to i64
  br label %.lr.ph63.split.us

.lr.ph63.split.us:                                ; preds = %.lr.ph63.split.us.preheader, %53
  %indvars.iv143 = phi i64 [ 0, %.lr.ph63.split.us.preheader ], [ %indvars.iv.next144, %53 ]
  %indvars.iv.next144 = add nuw nsw i64 %indvars.iv143, 1
  %30 = mul i64 %12, %indvars.iv.next144
  %31 = getelementptr inbounds nuw i8, ptr %9, i64 %30
  %32 = mul i64 %17, %indvars.iv.next144
  %33 = getelementptr inbounds nuw i8, ptr %14, i64 %32
  %34 = mul i64 %22, %indvars.iv143
  %35 = getelementptr inbounds nuw i8, ptr %19, i64 %34
  %36 = and i64 %indvars.iv143, 1
  %37 = icmp eq i64 %36, 0
  br i1 %37, label %.preheader.us, label %.lr.ph.us

._crit_edge.us:                                   ; preds = %.lr.ph.us
  %38 = trunc nuw nsw i64 %indvars.iv.next128 to i32
  %39 = icmp sgt i32 %.fr89, %38
  br i1 %39, label %40, label %53

40:                                               ; preds = %._crit_edge.us
  %41 = getelementptr inbounds nuw float, ptr %33, i64 %29
  br label %.sink.split

.lr.ph.us:                                        ; preds = %.lr.ph63.split.us, %.lr.ph.us
  %indvars.iv127 = phi i64 [ %indvars.iv.next128, %.lr.ph.us ], [ 0, %.lr.ph63.split.us ]
  %indvars.iv125 = phi i64 [ %indvars.iv.next126, %.lr.ph.us ], [ 1, %.lr.ph63.split.us ]
  %42 = getelementptr inbounds nuw float, ptr %33, i64 %indvars.iv125
  %43 = load float, ptr %42, align 4, !tbaa !42
  %44 = getelementptr inbounds nuw float, ptr %35, i64 %indvars.iv127
  store float %43, ptr %44, align 4, !tbaa !42
  %45 = getelementptr inbounds nuw float, ptr %31, i64 %indvars.iv125
  %46 = load float, ptr %45, align 4, !tbaa !42
  %47 = or disjoint i64 %indvars.iv127, 1
  %48 = getelementptr inbounds nuw float, ptr %35, i64 %47
  store float %46, ptr %48, align 4, !tbaa !42
  %indvars.iv.next126 = add nuw nsw i64 %indvars.iv125, 1
  %indvars.iv.next128 = add nuw nsw i64 %indvars.iv127, 2
  %exitcond133.not = icmp eq i64 %indvars.iv.next126, %wide.trip.count132
  br i1 %exitcond133.not, label %._crit_edge.us, label %.lr.ph.us, !llvm.loop !47

49:                                               ; preds = %._crit_edge57.us
  %50 = getelementptr inbounds nuw float, ptr %31, i64 %wide.trip.count141
  br label %.sink.split

.sink.split:                                      ; preds = %40, %49
  %indvars.iv.next137.lcssa.sink = phi i64 [ %indvars.iv.next137, %49 ], [ %indvars.iv.next128, %40 ]
  %.sink.in = phi ptr [ %50, %49 ], [ %41, %40 ]
  %.sink = load float, ptr %.sink.in, align 4, !tbaa !42
  %51 = and i64 %indvars.iv.next137.lcssa.sink, 4294967294
  %52 = getelementptr inbounds nuw float, ptr %35, i64 %51
  store float %.sink, ptr %52, align 4, !tbaa !42
  br label %53

53:                                               ; preds = %.sink.split, %._crit_edge57.us, %._crit_edge.us
  %exitcond147.not = icmp eq i64 %indvars.iv.next144, %wide.trip.count146
  br i1 %exitcond147.not, label %._crit_edge64, label %.lr.ph63.split.us, !llvm.loop !48

.preheader.us:                                    ; preds = %.lr.ph63.split.us, %.preheader.us
  %indvars.iv136 = phi i64 [ %indvars.iv.next137, %.preheader.us ], [ 0, %.lr.ph63.split.us ]
  %indvars.iv134 = phi i64 [ %indvars.iv.next135, %.preheader.us ], [ 1, %.lr.ph63.split.us ]
  %54 = getelementptr inbounds nuw float, ptr %31, i64 %indvars.iv134
  %55 = load float, ptr %54, align 4, !tbaa !42
  %56 = getelementptr inbounds nuw float, ptr %35, i64 %indvars.iv136
  store float %55, ptr %56, align 4, !tbaa !42
  %57 = getelementptr inbounds nuw float, ptr %33, i64 %indvars.iv134
  %58 = load float, ptr %57, align 4, !tbaa !42
  %59 = or disjoint i64 %indvars.iv136, 1
  %60 = getelementptr inbounds nuw float, ptr %35, i64 %59
  store float %58, ptr %60, align 4, !tbaa !42
  %indvars.iv.next135 = add nuw nsw i64 %indvars.iv134, 1
  %indvars.iv.next137 = add nuw nsw i64 %indvars.iv136, 2
  %exitcond142.not = icmp eq i64 %indvars.iv.next135, %wide.trip.count141
  br i1 %exitcond142.not, label %._crit_edge57.us, label %.preheader.us, !llvm.loop !49

._crit_edge57.us:                                 ; preds = %.preheader.us
  %61 = trunc nuw nsw i64 %indvars.iv.next137 to i32
  %62 = icmp sgt i32 %.fr89, %61
  br i1 %62, label %49, label %53

.lr.ph63.split.split:                             ; preds = %.lr.ph63
  %63 = icmp eq i32 %.fr89, 1
  br i1 %63, label %.lr.ph63.split.split.split.us.split.us.preheader, label %._crit_edge64

.lr.ph63.split.split.split.us.split.us.preheader: ; preds = %.lr.ph63.split.split
  %wide.trip.count109 = zext nneg i32 %6 to i64
  br label %.lr.ph63.split.split.split.us.split.us

.lr.ph63.split.split.split.us.split.us:           ; preds = %.lr.ph63.split.split.split.us.split.us.preheader, %.lr.ph63.split.split.split.us.split.us
  %indvars.iv106 = phi i64 [ 0, %.lr.ph63.split.split.split.us.split.us.preheader ], [ %indvars.iv.next107, %.lr.ph63.split.split.split.us.split.us ]
  %indvars.iv.next107 = add nuw nsw i64 %indvars.iv106, 1
  %64 = mul i64 %22, %indvars.iv106
  %65 = getelementptr inbounds nuw i8, ptr %19, i64 %64
  %66 = and i64 %indvars.iv106, 1
  %67 = icmp eq i64 %66, 0
  %spec.select = select i1 %67, i64 %12, i64 %17
  %spec.select153.v = select i1 %67, ptr %9, ptr %14
  %spec.select153 = getelementptr i8, ptr %spec.select153.v, i64 4
  %68 = mul i64 %spec.select, %indvars.iv.next107
  %gep78.us.us = getelementptr i8, ptr %spec.select153, i64 %68
  %storemerge = load float, ptr %gep78.us.us, align 4, !tbaa !42
  store float %storemerge, ptr %65, align 4, !tbaa !42
  %exitcond110.not = icmp eq i64 %indvars.iv.next107, %wide.trip.count109
  br i1 %exitcond110.not, label %._crit_edge64, label %.lr.ph63.split.split.split.us.split.us, !llvm.loop !48

._crit_edge64:                                    ; preds = %.lr.ph63.split.split.split.us.split.us, %53, %.lr.ph63.split.split, %3
  %69 = getelementptr inbounds nuw i8, ptr %4, i64 8
  %70 = load i32, ptr %69, align 8, !tbaa !33
  %.not.i = icmp eq i32 %70, 0
  br i1 %.not.i, label %_ZN2cv5utils5trace7details6RegionD2Ev.exit, label %71

71:                                               ; preds = %._crit_edge64
  invoke void @_ZN2cv5utils5trace7details6Region7destroyEv(ptr noundef nonnull align 8 dereferenceable(12) %4)
          to label %_ZN2cv5utils5trace7details6RegionD2Ev.exit unwind label %72

72:                                               ; preds = %71
  %73 = landingpad { ptr, i32 }
          catch ptr null
  %74 = extractvalue { ptr, i32 } %73, 0
  call void @__clang_call_terminate(ptr %74) #19
  unreachable

_ZN2cv5utils5trace7details6RegionD2Ev.exit:       ; preds = %._crit_edge64, %71
  call void @llvm.lifetime.end.p0(i64 16, ptr nonnull %4) #18
  ret void
}